; Function Attrs: nounwind uwtable
define dso_local void @lua_createtable(ptr noundef %0, i32 noundef %1, i32 noundef %2) local_unnamed_addr #2 {
  %4 = getelementptr inbounds nuw i8, ptr %0, i64 32
  %5 = load ptr, ptr %4, align 8, !tbaa !29
  %6 = getelementptr inbounds nuw i8, ptr %5, i64 120
  %7 = load i64, ptr %6, align 8, !tbaa !38
  %8 = getelementptr inbounds nuw i8, ptr %5, i64 112
  %9 = load i64, ptr %8, align 8, !tbaa !39
  %.not = icmp ult i64 %7, %9
  br i1 %.not, label %11, label %10

10:                                               ; preds = %3
  tail call void @luaC_step(ptr noundef nonnull %0) #14
  br label %11

11:                                               ; preds = %10, %3
  %12 = getelementptr inbounds nuw i8, ptr %0, i64 16
  %13 = load ptr, ptr %12, align 8, !tbaa !4
  %14 = tail call ptr @luaH_new(ptr noundef nonnull %0, i32 noundef %1, i32 noundef %2) #14
  store ptr %14, ptr %13, align 8, !tbaa !19
  %15 = getelementptr inbounds nuw i8, ptr %13, i64 8
  store i32 5, ptr %15, align 8, !tbaa !20
  %16 = load ptr, ptr %12, align 8, !tbaa !4
  %17 = getelementptr inbounds nuw i8, ptr %16, i64 16
  store ptr %17, ptr %12, align 8, !tbaa !4
  ret void
}